target datalayout = "e-m:e-p270:32:32-p271:32:32-p272:64:64-i64:64-i128:128-f80:128-n8:16:32:64-S128"
target triple = "x86_64-pc-linux-gnu"

%struct.FunctionCallInfoBaseData = type { ptr, ptr, ptr, i32, i8, i16, [0 x %struct.NullableDatum] }
%struct.NullableDatum = type { i64, i8 }
%struct.GISTENTRY = type { i64, ptr, ptr, i16, i8 }
%struct.RangeType = type { i32, i32 }
%struct.PageHeaderData = type { %struct.PageXLogRecPtr, i16, i16, i16, i16, i16, i16, i32, [0 x %struct.ItemIdData] }
%struct.PageXLogRecPtr = type { i32, i32 }
%struct.ItemIdData = type { i32 }
%struct.GISTPageOpaqueData = type { %struct.PageXLogRecPtr, i32, i16, i16 }

@.str.1 = private unnamed_addr constant [18 x i8] c"rangetypes_gist.c\00", align 1
@.str.2 = private unnamed_addr constant [32 x i8] c"unrecognized range strategy: %d\00", align 1
@__func__.range_gist_consistent_int_element = private unnamed_addr constant [34 x i8] c"range_gist_consistent_int_element\00", align 1
@__func__.range_gist_consistent_leaf_element = private unnamed_addr constant [35 x i8] c"range_gist_consistent_leaf_element\00", align 1

; Function Attrs: inlinehint nounwind uwtable
define internal i64 @BoolGetDatum(i1 noundef zeroext %0) #2 {
  %2 = alloca i8, align 1
  %3 = zext i1 %0 to i8
  store i8 %3, ptr %2, align 1
  %4 = load i8, ptr %2, align 1, !range !4, !noundef !5
  %5 = trunc i8 %4 to i1
  %6 = select i1 %5, i32 1, i32 0
  %7 = sext i32 %6 to i64
  ret i64 %7
}

; Function Attrs: nounwind uwtable
define internal zeroext i1 @range_gist_consistent_int_element(ptr noundef %0, i16 noundef zeroext %1, ptr noundef %2, i64 noundef %3) #0 {
  %5 = alloca i1, align 1
  %6 = alloca ptr, align 8
  %7 = alloca i16, align 2
  %8 = alloca ptr, align 8
  %9 = alloca i64, align 8
  store ptr %0, ptr %6, align 8
  store i16 %1, ptr %7, align 2
  store ptr %2, ptr %8, align 8
  store i64 %3, ptr %9, align 8
  %10 = load i16, ptr %7, align 2
  %11 = zext i16 %10 to i32
  switch i32 %11, label %17 [
    i32 16, label %12
  ]

12:                                               ; preds = %4
  %13 = load ptr, ptr %6, align 8
  %14 = load ptr, ptr %8, align 8
  %15 = load i64, ptr %9, align 8
  %16 = call zeroext i1 @range_contains_elem_internal(ptr noundef %13, ptr noundef %14, i64 noundef %15)
  store i1 %16, ptr %5, align 1
  br label %29

17:                                               ; preds = %4
  br label %18

18:                                               ; preds = %17
  br i1 true, label %19, label %21

19:                                               ; preds = %18
  %20 = call zeroext i1 @errstart_cold(i32 noundef 21, ptr noundef null) #9
  br i1 %20, label %23, label %27

21:                                               ; preds = %18
  %22 = call zeroext i1 @errstart(i32 noundef 21, ptr noundef null)
  br i1 %22, label %23, label %27

23:                                               ; preds = %21, %19
  %24 = load i16, ptr %7, align 2
  %25 = zext i16 %24 to i32
  %26 = call i32 (ptr, ...) @errmsg_internal(ptr noundef @.str.2, i32 noundef %25)
  call void @errfinish(ptr noundef @.str.1, i32 noundef 1049, ptr noundef @__func__.range_gist_consistent_int_element)
  br label %27

27:                                               ; preds = %23, %21, %19
  unreachable

28:                                               ; No predecessors!
  store i1 false, ptr %5, align 1
  br label %29

29:                                               ; preds = %28, %12
  %30 = load i1, ptr %5, align 1
  ret i1 %30
}

; Function Attrs: nounwind uwtable
define internal zeroext i1 @range_gist_consistent_leaf_element(ptr noundef %0, i16 noundef zeroext %1, ptr noundef %2, i64 noundef %3) #0 {
  %5 = alloca i1, align 1
  %6 = alloca ptr, align 8
  %7 = alloca i16, align 2
  %8 = alloca ptr, align 8
  %9 = alloca i64, align 8
  store ptr %0, ptr %6, align 8
  store i16 %1, ptr %7, align 2
  store ptr %2, ptr %8, align 8
  store i64 %3, ptr %9, align 8
  %10 = load i16, ptr %7, align 2
  %11 = zext i16 %10 to i32
  switch i32 %11, label %17 [
    i32 16, label %12
  ]

12:                                               ; preds = %4
  %13 = load ptr, ptr %6, align 8
  %14 = load ptr, ptr %8, align 8
  %15 = load i64, ptr %9, align 8
  %16 = call zeroext i1 @range_contains_elem_internal(ptr noundef %13, ptr noundef %14, i64 noundef %15)
  store i1 %16, ptr %5, align 1
  br label %29

17:                                               ; preds = %4
  br label %18

18:                                               ; preds = %17
  br i1 true, label %19, label %21

19:                                               ; preds = %18
  %20 = call zeroext i1 @errstart_cold(i32 noundef 21, ptr noundef null) #9
  br i1 %20, label %23, label %27

21:                                               ; preds = %18
  %22 = call zeroext i1 @errstart(i32 noundef 21, ptr noundef null)
  br i1 %22, label %23, label %27

23:                                               ; preds = %21, %19
  %24 = load i16, ptr %7, align 2
  %25 = zext i16 %24 to i32
  %26 = call i32 (ptr, ...) @errmsg_internal(ptr noundef @.str.2, i32 noundef %25)
  call void @errfinish(ptr noundef @.str.1, i32 noundef 1138, ptr noundef @__func__.range_gist_consistent_leaf_element)
  br label %27

27:                                               ; preds = %23, %21, %19
  unreachable

28:                                               ; No predecessors!
  store i1 false, ptr %5, align 1
  br label %29

29:                                               ; preds = %28, %12
  %30 = load i1, ptr %5, align 1
  ret i1 %30
}

; Function Attrs: inlinehint nounwind uwtable
define internal ptr @DatumGetMultirangeTypeP(i64 noundef %0) #2 {
  %2 = alloca i64, align 8
  store i64 %0, ptr %2, align 8
  %3 = load i64, ptr %2, align 8
  %4 = call ptr @DatumGetPointer(i64 noundef %3)
  %5 = call ptr @pg_detoast_datum(ptr noundef %4)
  ret ptr %5
}

; Function Attrs: inlinehint nounwind uwtable
define internal void @PageValidateSpecialPointer(ptr noundef %0) #2 {
  %2 = alloca ptr, align 8
  store ptr %0, ptr %2, align 8
  ret void
}

; Function Attrs: inlinehint nounwind uwtable
define internal ptr @DatumGetRangeTypeP(i64 noundef %0) #2 {
  %2 = alloca i64, align 8
  store i64 %0, ptr %2, align 8
  %3 = load i64, ptr %2, align 8
  %4 = call ptr @DatumGetPointer(i64 noundef %3)
  %5 = call ptr @pg_detoast_datum(ptr noundef %4)
  ret ptr %5
}

; Function Attrs: inlinehint nounwind uwtable
define internal i32 @DatumGetObjectId(i64 noundef %0) #2 {
  %2 = alloca i64, align 8
  store i64 %0, ptr %2, align 8
  %3 = load i64, ptr %2, align 8
  %4 = trunc i64 %3 to i32
  ret i32 %4
}

; Function Attrs: inlinehint nounwind uwtable
define internal zeroext i16 @DatumGetUInt16(i64 noundef %0) #2 {
  %2 = alloca i64, align 8
  store i64 %0, ptr %2, align 8
  %3 = load i64, ptr %2, align 8
  %4 = trunc i64 %3 to i16
  ret i16 %4
}

; Function Attrs: inlinehint nounwind uwtable
define internal ptr @DatumGetPointer(i64 noundef %0) #2 {
  %2 = alloca i64, align 8
  store i64 %0, ptr %2, align 8
  %3 = load i64, ptr %2, align 8
  %4 = inttoptr i64 %3 to ptr
  ret ptr %4
}

; Function Attrs: nounwind uwtable
define dso_local i64 @multirange_gist_consistent(ptr noundef %0) #0 {
  %2 = alloca ptr, align 8
  %3 = alloca ptr, align 8
  %4 = alloca i64, align 8
  %5 = alloca i16, align 2
  %6 = alloca i8, align 1
  %7 = alloca i32, align 4
  %8 = alloca ptr, align 8
  %9 = alloca ptr, align 8
  %10 = alloca ptr, align 8
  store ptr %0, ptr %2, align 8
  call void @llvm.lifetime.start.p0(i64 8, ptr %3) #8
  %11 = load ptr, ptr %2, align 8
  %12 = getelementptr inbounds nuw %struct.FunctionCallInfoBaseData, ptr %11, i32 0, i32 6
  %13 = getelementptr inbounds [0 x %struct.NullableDatum], ptr %12, i64 0, i64 0
  %14 = getelementptr inbounds nuw %struct.NullableDatum, ptr %13, i32 0, i32 0
  %15 = load i64, ptr %14, align 8
  %16 = call ptr @DatumGetPointer(i64 noundef %15)
  store ptr %16, ptr %3, align 8
  call void @llvm.lifetime.start.p0(i64 8, ptr %4) #8
  %17 = load ptr, ptr %2, align 8
  %18 = getelementptr inbounds nuw %struct.FunctionCallInfoBaseData, ptr %17, i32 0, i32 6
  %19 = getelementptr inbounds [0 x %struct.NullableDatum], ptr %18, i64 0, i64 1
  %20 = getelementptr inbounds nuw %struct.NullableDatum, ptr %19, i32 0, i32 0
  %21 = load i64, ptr %20, align 8
  store i64 %21, ptr %4, align 8
  call void @llvm.lifetime.start.p0(i64 2, ptr %5) #8
  %22 = load ptr, ptr %2, align 8
  %23 = getelementptr inbounds nuw %struct.FunctionCallInfoBaseData, ptr %22, i32 0, i32 6
  %24 = getelementptr inbounds [0 x %struct.NullableDatum], ptr %23, i64 0, i64 2
  %25 = getelementptr inbounds nuw %struct.NullableDatum, ptr %24, i32 0, i32 0
  %26 = load i64, ptr %25, align 8
  %27 = call zeroext i16 @DatumGetUInt16(i64 noundef %26)
  store i16 %27, ptr %5, align 2
  call void @llvm.lifetime.start.p0(i64 1, ptr %6) #8
  call void @llvm.lifetime.start.p0(i64 4, ptr %7) #8
  %28 = load ptr, ptr %2, align 8
  %29 = getelementptr inbounds nuw %struct.FunctionCallInfoBaseData, ptr %28, i32 0, i32 6
  %30 = getelementptr inbounds [0 x %struct.NullableDatum], ptr %29, i64 0, i64 3
  %31 = getelementptr inbounds nuw %struct.NullableDatum, ptr %30, i32 0, i32 0
  %32 = load i64, ptr %31, align 8
  %33 = call i32 @DatumGetObjectId(i64 noundef %32)
  store i32 %33, ptr %7, align 4
  call void @llvm.lifetime.start.p0(i64 8, ptr %8) #8
  %34 = load ptr, ptr %2, align 8
  %35 = getelementptr inbounds nuw %struct.FunctionCallInfoBaseData, ptr %34, i32 0, i32 6
  %36 = getelementptr inbounds [0 x %struct.NullableDatum], ptr %35, i64 0, i64 4
  %37 = getelementptr inbounds nuw %struct.NullableDatum, ptr %36, i32 0, i32 0
  %38 = load i64, ptr %37, align 8
  %39 = call ptr @DatumGetPointer(i64 noundef %38)
  store ptr %39, ptr %8, align 8
  call void @llvm.lifetime.start.p0(i64 8, ptr %9) #8
  %40 = load ptr, ptr %3, align 8
  %41 = getelementptr inbounds nuw %struct.GISTENTRY, ptr %40, i32 0, i32 0
  %42 = load i64, ptr %41, align 8
  %43 = call ptr @DatumGetRangeTypeP(i64 noundef %42)
  store ptr %43, ptr %9, align 8
  call void @llvm.lifetime.start.p0(i64 8, ptr %10) #8
  %44 = load ptr, ptr %8, align 8
  store i8 1, ptr %44, align 1
  %45 = load ptr, ptr %2, align 8
  %46 = load ptr, ptr %9, align 8
  %47 = getelementptr inbounds nuw %struct.RangeType, ptr %46, i32 0, i32 1
  %48 = load i32, ptr %47, align 4
  %49 = call ptr @range_get_typcache(ptr noundef %45, i32 noundef %48)
  store ptr %49, ptr %10, align 8
  %50 = load ptr, ptr %3, align 8
  %51 = getelementptr inbounds nuw %struct.GISTENTRY, ptr %50, i32 0, i32 2
  %52 = load ptr, ptr %51, align 8
  call void @PageValidateSpecialPointer(ptr noundef %52)
  %53 = load ptr, ptr %3, align 8
  %54 = getelementptr inbounds nuw %struct.GISTENTRY, ptr %53, i32 0, i32 2
  %55 = load ptr, ptr %54, align 8
  %56 = load ptr, ptr %3, align 8
  %57 = getelementptr inbounds nuw %struct.GISTENTRY, ptr %56, i32 0, i32 2
  %58 = load ptr, ptr %57, align 8
  %59 = getelementptr inbounds nuw %struct.PageHeaderData, ptr %58, i32 0, i32 5
  %60 = load i16, ptr %59, align 4
  %61 = zext i16 %60 to i32
  %62 = sext i32 %61 to i64
  %63 = getelementptr inbounds i8, ptr %55, i64 %62
  %64 = getelementptr inbounds nuw %struct.GISTPageOpaqueData, ptr %63, i32 0, i32 2
  %65 = load i16, ptr %64, align 4
  %66 = zext i16 %65 to i32
  %67 = and i32 %66, 1
  %68 = icmp ne i32 %67, 0
  br i1 %68, label %69, label %103

69:                                               ; preds = %1
  %70 = load i32, ptr %7, align 4
  %71 = icmp ne i32 %70, 0
  br i1 %71, label %72, label %75

72:                                               ; preds = %69
  %73 = load i32, ptr %7, align 4
  %74 = icmp eq i32 %73, 4537
  br i1 %74, label %75, label %83

75:                                               ; preds = %72, %69
  %76 = load ptr, ptr %10, align 8
  %77 = load i16, ptr %5, align 2
  %78 = load ptr, ptr %9, align 8
  %79 = load i64, ptr %4, align 8
  %80 = call ptr @DatumGetMultirangeTypeP(i64 noundef %79)
  %81 = call zeroext i1 @range_gist_consistent_leaf_multirange(ptr noundef %76, i16 noundef zeroext %77, ptr noundef %78, ptr noundef %80)
  %82 = zext i1 %81 to i8
  store i8 %82, ptr %6, align 1
  br label %102

83:                                               ; preds = %72
  %84 = load i32, ptr %7, align 4
  %85 = icmp eq i32 %84, 3831
  br i1 %85, label %86, label %94

86:                                               ; preds = %83
  %87 = load ptr, ptr %10, align 8
  %88 = load i16, ptr %5, align 2
  %89 = load ptr, ptr %9, align 8
  %90 = load i64, ptr %4, align 8
  %91 = call ptr @DatumGetRangeTypeP(i64 noundef %90)
  %92 = call zeroext i1 @range_gist_consistent_leaf_range(ptr noundef %87, i16 noundef zeroext %88, ptr noundef %89, ptr noundef %91)
  %93 = zext i1 %92 to i8
  store i8 %93, ptr %6, align 1
  br label %101

94:                                               ; preds = %83
  %95 = load ptr, ptr %10, align 8
  %96 = load i16, ptr %5, align 2
  %97 = load ptr, ptr %9, align 8
  %98 = load i64, ptr %4, align 8
  %99 = call zeroext i1 @range_gist_consistent_leaf_element(ptr noundef %95, i16 noundef zeroext %96, ptr noundef %97, i64 noundef %98)
  %100 = zext i1 %99 to i8
  store i8 %100, ptr %6, align 1
  br label %101

101:                                              ; preds = %94, %86
  br label %102

102:                                              ; preds = %101, %75
  br label %137

103:                                              ; preds = %1
  %104 = load i32, ptr %7, align 4
  %105 = icmp ne i32 %104, 0
  br i1 %105, label %106, label %109

106:                                              ; preds = %103
  %107 = load i32, ptr %7, align 4
  %108 = icmp eq i32 %107, 4537
  br i1 %108, label %109, label %117

109:                                              ; preds = %106, %103
  %110 = load ptr, ptr %10, align 8
  %111 = load i16, ptr %5, align 2
  %112 = load ptr, ptr %9, align 8
  %113 = load i64, ptr %4, align 8
  %114 = call ptr @DatumGetMultirangeTypeP(i64 noundef %113)
  %115 = call zeroext i1 @range_gist_consistent_int_multirange(ptr noundef %110, i16 noundef zeroext %111, ptr noundef %112, ptr noundef %114)
  %116 = zext i1 %115 to i8
  store i8 %116, ptr %6, align 1
  br label %136

117:                                              ; preds = %106
  %118 = load i32, ptr %7, align 4
  %119 = icmp eq i32 %118, 3831
  br i1 %119, label %120, label %128

120:                                              ; preds = %117
  %121 = load ptr, ptr %10, align 8
  %122 = load i16, ptr %5, align 2
  %123 = load ptr, ptr %9, align 8
  %124 = load i64, ptr %4, align 8
  %125 = call ptr @DatumGetRangeTypeP(i64 noundef %124)
  %126 = call zeroext i1 @range_gist_consistent_int_range(ptr noundef %121, i16 noundef zeroext %122, ptr noundef %123, ptr noundef %125)
  %127 = zext i1 %126 to i8
  store i8 %127, ptr %6, align 1
  br label %135

128:                                              ; preds = %117
  %129 = load ptr, ptr %10, align 8
  %130 = load i16, ptr %5, align 2
  %131 = load ptr, ptr %9, align 8
  %132 = load i64, ptr %4, align 8
  %133 = call zeroext i1 @range_gist_consistent_int_element(ptr noundef %129, i16 noundef zeroext %130, ptr noundef %131, i64 noundef %132)
  %134 = zext i1 %133 to i8
  store i8 %134, ptr %6, align 1
  br label %135

135:                                              ; preds = %128, %120
  br label %136

136:                                              ; preds = %135, %109
  br label %137

137:                                              ; preds = %136, %102
  %138 = load i8, ptr %6, align 1, !range !4, !noundef !5
  %139 = trunc i8 %138 to i1
  %140 = call i64 @BoolGetDatum(i1 noundef zeroext %139)
  call void @llvm.lifetime.end.p0(i64 8, ptr %10) #8
  call void @llvm.lifetime.end.p0(i64 8, ptr %9) #8
  call void @llvm.lifetime.end.p0(i64 8, ptr %8) #8
  call void @llvm.lifetime.end.p0(i64 4, ptr %7) #8
  call void @llvm.lifetime.end.p0(i64 1, ptr %6) #8
  call void @llvm.lifetime.end.p0(i64 2, ptr %5) #8
  call void @llvm.lifetime.end.p0(i64 8, ptr %4) #8
  call void @llvm.lifetime.end.p0(i64 8, ptr %3) #8
  ret i64 %140
}